target datalayout = "e-m:e-p270:32:32-p271:32:32-p272:64:64-i64:64-i128:128-f80:128-n8:16:32:64-S128"
target triple = "x86_64-pc-linux-gnu"

%struct.expert_field = type { i32, i32 }

@hf_fcfzs_zonesetnmlen = internal global i32 0, align 4
@hf_fcfzs_zonesetname = internal global i32 0, align 4
@hf_fcfzs_numzones = internal global i32 0, align 4
@hf_fcfzs_zonenmlen = internal global i32 0, align 4
@hf_fcfzs_zonename = internal global i32 0, align 4
@hf_fcfzs_nummbrentries = internal global i32 0, align 4
@hf_fcfzs_mbrtype = internal global i32 0, align 4
@hf_fcfzs_mbrid_fcwwn = internal global i32 0, align 4
@hf_fcfzs_mbrid_fc = internal global i32 0, align 4
@hf_fcfzs_mbrid_uint = internal global i32 0, align 4
@hf_fcfzs_mbrid_lun = internal global i32 0, align 4
@ei_fcfzs_mbrid = internal global %struct.expert_field zeroinitializer, align 4

; Function Attrs: null_pointer_is_valid sspstrong uwtable
define internal void @dissect_fcfzs_zoneset(ptr noundef %0, ptr noundef %1, ptr noundef %2, i32 noundef %3) #0 {
  %5 = alloca ptr, align 8
  %6 = alloca ptr, align 8
  %7 = alloca ptr, align 8
  %8 = alloca i32, align 4
  %9 = alloca i32, align 4
  %10 = alloca i32, align 4
  %11 = alloca i32, align 4
  %12 = alloca i32, align 4
  %13 = alloca i32, align 4
  %14 = alloca ptr, align 8
  store ptr %0, ptr %5, align 8
  store ptr %1, ptr %6, align 8
  store ptr %2, ptr %7, align 8
  store i32 %3, ptr %8, align 4
  call void @llvm.lifetime.start.p0(i64 4, ptr %9) #5
  call void @llvm.lifetime.start.p0(i64 4, ptr %10) #5
  call void @llvm.lifetime.start.p0(i64 4, ptr %11) #5
  call void @llvm.lifetime.start.p0(i64 4, ptr %12) #5
  call void @llvm.lifetime.start.p0(i64 4, ptr %13) #5
  call void @llvm.lifetime.start.p0(i64 8, ptr %14) #5
  %15 = load ptr, ptr %5, align 8
  %16 = load i32, ptr %8, align 4
  %17 = call zeroext i8 @tvb_get_uint8(ptr noundef %15, i32 noundef %16)
  %18 = zext i8 %17 to i32
  store i32 %18, ptr %13, align 4
  %19 = load ptr, ptr %7, align 8
  %20 = load i32, ptr @hf_fcfzs_zonesetnmlen, align 4
  %21 = load ptr, ptr %5, align 8
  %22 = load i32, ptr %8, align 4
  %23 = call ptr @proto_tree_add_item(ptr noundef %19, i32 noundef %20, ptr noundef %21, i32 noundef %22, i32 noundef 1, i32 noundef 0)
  %24 = load i32, ptr %8, align 4
  %25 = add i32 %24, 4
  store i32 %25, ptr %8, align 4
  %26 = load ptr, ptr %7, align 8
  %27 = load i32, ptr @hf_fcfzs_zonesetname, align 4
  %28 = load ptr, ptr %5, align 8
  %29 = load i32, ptr %8, align 4
  %30 = load i32, ptr %13, align 4
  %31 = call ptr @proto_tree_add_item(ptr noundef %26, i32 noundef %27, ptr noundef %28, i32 noundef %29, i32 noundef %30, i32 noundef 0)
  %32 = load i32, ptr %13, align 4
  %33 = load i32, ptr %8, align 4
  %34 = add i32 %33, %32
  store i32 %34, ptr %8, align 4
  %35 = load i32, ptr %13, align 4
  %36 = srem i32 %35, 4
  %37 = icmp ne i32 %36, 0
  br i1 %37, label %38, label %44

38:                                               ; preds = %4
  %39 = load i32, ptr %13, align 4
  %40 = srem i32 %39, 4
  %41 = sub i32 4, %40
  %42 = load i32, ptr %8, align 4
  %43 = add i32 %42, %41
  store i32 %43, ptr %8, align 4
  br label %44

44:                                               ; preds = %38, %4
  %45 = load ptr, ptr %5, align 8
  %46 = load i32, ptr %8, align 4
  %47 = call i32 @tvb_get_ntohl(ptr noundef %45, i32 noundef %46)
  store i32 %47, ptr %9, align 4
  %48 = load ptr, ptr %7, align 8
  %49 = load i32, ptr @hf_fcfzs_numzones, align 4
  %50 = load ptr, ptr %5, align 8
  %51 = load i32, ptr %8, align 4
  %52 = call ptr @proto_tree_add_item(ptr noundef %48, i32 noundef %49, ptr noundef %50, i32 noundef %51, i32 noundef 4, i32 noundef 0)
  %53 = load i32, ptr %8, align 4
  %54 = add i32 %53, 4
  store i32 %54, ptr %8, align 4
  store i32 0, ptr %11, align 4
  br label %55

55:                                               ; preds = %185, %44
  %56 = load i32, ptr %11, align 4
  %57 = load i32, ptr %9, align 4
  %58 = icmp slt i32 %56, %57
  br i1 %58, label %59, label %188

59:                                               ; preds = %55
  %60 = load ptr, ptr %5, align 8
  %61 = load i32, ptr %8, align 4
  %62 = call zeroext i8 @tvb_get_uint8(ptr noundef %60, i32 noundef %61)
  %63 = zext i8 %62 to i32
  store i32 %63, ptr %13, align 4
  %64 = load ptr, ptr %7, align 8
  %65 = load i32, ptr @hf_fcfzs_zonenmlen, align 4
  %66 = load ptr, ptr %5, align 8
  %67 = load i32, ptr %8, align 4
  %68 = call ptr @proto_tree_add_item(ptr noundef %64, i32 noundef %65, ptr noundef %66, i32 noundef %67, i32 noundef 1, i32 noundef 0)
  %69 = load i32, ptr %8, align 4
  %70 = add i32 %69, 4
  store i32 %70, ptr %8, align 4
  %71 = load ptr, ptr %7, align 8
  %72 = load i32, ptr @hf_fcfzs_zonename, align 4
  %73 = load ptr, ptr %5, align 8
  %74 = load i32, ptr %8, align 4
  %75 = load i32, ptr %13, align 4
  %76 = call ptr @proto_tree_add_item(ptr noundef %71, i32 noundef %72, ptr noundef %73, i32 noundef %74, i32 noundef %75, i32 noundef 0)
  %77 = load i32, ptr %13, align 4
  %78 = load i32, ptr %8, align 4
  %79 = add i32 %78, %77
  store i32 %79, ptr %8, align 4
  %80 = load i32, ptr %13, align 4
  %81 = srem i32 %80, 4
  %82 = icmp ne i32 %81, 0
  br i1 %82, label %83, label %89

83:                                               ; preds = %59
  %84 = load i32, ptr %13, align 4
  %85 = srem i32 %84, 4
  %86 = sub i32 4, %85
  %87 = load i32, ptr %8, align 4
  %88 = add i32 %87, %86
  store i32 %88, ptr %8, align 4
  br label %89

89:                                               ; preds = %83, %59
  %90 = load ptr, ptr %5, align 8
  %91 = load i32, ptr %8, align 4
  %92 = call i32 @tvb_get_ntohl(ptr noundef %90, i32 noundef %91)
  store i32 %92, ptr %10, align 4
  %93 = load ptr, ptr %7, align 8
  %94 = load i32, ptr @hf_fcfzs_nummbrentries, align 4
  %95 = load ptr, ptr %5, align 8
  %96 = load i32, ptr %8, align 4
  %97 = call ptr @proto_tree_add_item(ptr noundef %93, i32 noundef %94, ptr noundef %95, i32 noundef %96, i32 noundef 4, i32 noundef 0)
  %98 = load i32, ptr %8, align 4
  %99 = add i32 %98, 4
  store i32 %99, ptr %8, align 4
  store i32 0, ptr %12, align 4
  br label %100

100:                                              ; preds = %181, %89
  %101 = load i32, ptr %12, align 4
  %102 = load i32, ptr %10, align 4
  %103 = icmp slt i32 %101, %102
  br i1 %103, label %104, label %184

104:                                              ; preds = %100
  %105 = load ptr, ptr %7, align 8
  %106 = load i32, ptr @hf_fcfzs_mbrtype, align 4
  %107 = load ptr, ptr %5, align 8
  %108 = load i32, ptr %8, align 4
  %109 = call ptr @proto_tree_add_item(ptr noundef %105, i32 noundef %106, ptr noundef %107, i32 noundef %108, i32 noundef 1, i32 noundef 0)
  store ptr %109, ptr %14, align 8
  %110 = load ptr, ptr %5, align 8
  %111 = load i32, ptr %8, align 4
  %112 = call zeroext i8 @tvb_get_uint8(ptr noundef %110, i32 noundef %111)
  %113 = zext i8 %112 to i32
  switch i32 %113, label %174 [
    i32 1, label %114
    i32 4, label %114
    i32 2, label %121
    i32 3, label %128
    i32 225, label %135
    i32 226, label %148
    i32 227, label %161
  ]

114:                                              ; preds = %104, %104
  %115 = load ptr, ptr %7, align 8
  %116 = load i32, ptr @hf_fcfzs_mbrid_fcwwn, align 4
  %117 = load ptr, ptr %5, align 8
  %118 = load i32, ptr %8, align 4
  %119 = add i32 %118, 4
  %120 = call ptr @proto_tree_add_item(ptr noundef %115, i32 noundef %116, ptr noundef %117, i32 noundef %119, i32 noundef 8, i32 noundef 0)
  br label %178

121:                                              ; preds = %104
  %122 = load ptr, ptr %7, align 8
  %123 = load i32, ptr @hf_fcfzs_mbrid_uint, align 4
  %124 = load ptr, ptr %5, align 8
  %125 = load i32, ptr %8, align 4
  %126 = add i32 %125, 4
  %127 = call ptr @proto_tree_add_item(ptr noundef %122, i32 noundef %123, ptr noundef %124, i32 noundef %126, i32 noundef 3, i32 noundef 0)
  br label %178

128:                                              ; preds = %104
  %129 = load ptr, ptr %7, align 8
  %130 = load i32, ptr @hf_fcfzs_mbrid_fc, align 4
  %131 = load ptr, ptr %5, align 8
  %132 = load i32, ptr %8, align 4
  %133 = add i32 %132, 4
  %134 = call ptr @proto_tree_add_item(ptr noundef %129, i32 noundef %130, ptr noundef %131, i32 noundef %133, i32 noundef 3, i32 noundef 0)
  br label %178

135:                                              ; preds = %104
  %136 = load ptr, ptr %7, align 8
  %137 = load i32, ptr @hf_fcfzs_mbrid_fcwwn, align 4
  %138 = load ptr, ptr %5, align 8
  %139 = load i32, ptr %8, align 4
  %140 = add i32 %139, 4
  %141 = call ptr @proto_tree_add_item(ptr noundef %136, i32 noundef %137, ptr noundef %138, i32 noundef %140, i32 noundef 8, i32 noundef 0)
  %142 = load ptr, ptr %7, align 8
  %143 = load i32, ptr @hf_fcfzs_mbrid_lun, align 4
  %144 = load ptr, ptr %5, align 8
  %145 = load i32, ptr %8, align 4
  %146 = add i32 %145, 8
  %147 = call ptr @proto_tree_add_item(ptr noundef %142, i32 noundef %143, ptr noundef %144, i32 noundef %146, i32 noundef 8, i32 noundef 0)
  br label %178

148:                                              ; preds = %104
  %149 = load ptr, ptr %7, align 8
  %150 = load i32, ptr @hf_fcfzs_mbrid_uint, align 4
  %151 = load ptr, ptr %5, align 8
  %152 = load i32, ptr %8, align 4
  %153 = add i32 %152, 4
  %154 = call ptr @proto_tree_add_item(ptr noundef %149, i32 noundef %150, ptr noundef %151, i32 noundef %153, i32 noundef 3, i32 noundef 0)
  %155 = load ptr, ptr %7, align 8
  %156 = load i32, ptr @hf_fcfzs_mbrid_lun, align 4
  %157 = load ptr, ptr %5, align 8
  %158 = load i32, ptr %8, align 4
  %159 = add i32 %158, 4
  %160 = call ptr @proto_tree_add_item(ptr noundef %155, i32 noundef %156, ptr noundef %157, i32 noundef %159, i32 noundef 8, i32 noundef 0)
  br label %178

161:                                              ; preds = %104
  %162 = load ptr, ptr %7, align 8
  %163 = load i32, ptr @hf_fcfzs_mbrid_fc, align 4
  %164 = load ptr, ptr %5, align 8
  %165 = load i32, ptr %8, align 4
  %166 = add i32 %165, 4
  %167 = call ptr @proto_tree_add_item(ptr noundef %162, i32 noundef %163, ptr noundef %164, i32 noundef %166, i32 noundef 3, i32 noundef 0)
  %168 = load ptr, ptr %7, align 8
  %169 = load i32, ptr @hf_fcfzs_mbrid_lun, align 4
  %170 = load ptr, ptr %5, align 8
  %171 = load i32, ptr %8, align 4
  %172 = add i32 %171, 4
  %173 = call ptr @proto_tree_add_item(ptr noundef %168, i32 noundef %169, ptr noundef %170, i32 noundef %172, i32 noundef 8, i32 noundef 0)
  br label %178

174:                                              ; preds = %104
  %175 = load ptr, ptr %6, align 8
  %176 = load ptr, ptr %14, align 8
  %177 = call ptr @expert_add_info(ptr noundef %175, ptr noundef %176, ptr noundef @ei_fcfzs_mbrid)
  br label %178

178:                                              ; preds = %174, %161, %148, %135, %128, %121, %114
  %179 = load i32, ptr %8, align 4
  %180 = add i32 %179, 12
  store i32 %180, ptr %8, align 4
  br label %181

181:                                              ; preds = %178
  %182 = load i32, ptr %12, align 4
  %183 = add i32 %182, 1
  store i32 %183, ptr %12, align 4
  br label %100, !llvm.loop !13

184:                                              ; preds = %100
  br label %185

185:                                              ; preds = %184
  %186 = load i32, ptr %11, align 4
  %187 = add i32 %186, 1
  store i32 %187, ptr %11, align 4
  br label %55, !llvm.loop !14

188:                                              ; preds = %55
  call void @llvm.lifetime.end.p0(i64 8, ptr %14) #5
  call void @llvm.lifetime.end.p0(i64 4, ptr %13) #5
  call void @llvm.lifetime.end.p0(i64 4, ptr %12) #5
  call void @llvm.lifetime.end.p0(i64 4, ptr %11) #5
  call void @llvm.lifetime.end.p0(i64 4, ptr %10) #5
  call void @llvm.lifetime.end.p0(i64 4, ptr %9) #5
  ret void
}