; Function Attrs: null_pointer_is_valid sspstrong uwtable
define internal fastcc void @dissect_fcfzs_zoneset(ptr noundef %0, ptr noundef %1, ptr noundef %2) unnamed_addr #0 {
  %4 = tail call zeroext i8 @tvb_get_uint8(ptr noundef %0, i32 noundef 16)
  %5 = zext i8 %4 to i32
  %6 = load i32, ptr @hf_fcfzs_zonesetnmlen, align 4
  %7 = tail call ptr @proto_tree_add_item(ptr noundef %2, i32 noundef %6, ptr noundef %0, i32 noundef 16, i32 noundef 1, i32 noundef 0)
  %8 = load i32, ptr @hf_fcfzs_zonesetname, align 4
  %9 = tail call ptr @proto_tree_add_item(ptr noundef %2, i32 noundef %8, ptr noundef %0, i32 noundef 20, i32 noundef %5, i32 noundef 0)
  %10 = add nuw nsw i32 %5, 20
  %11 = and i32 %5, 3
  %.not = icmp eq i32 %11, 0
  %12 = and i32 %5, 252
  %13 = add nuw nsw i32 %12, 24
  %.0 = select i1 %.not, i32 %10, i32 %13
  %14 = tail call i32 @tvb_get_ntohl(ptr noundef %0, i32 noundef %.0)
  %15 = load i32, ptr @hf_fcfzs_numzones, align 4
  %16 = tail call ptr @proto_tree_add_item(ptr noundef %2, i32 noundef %15, ptr noundef %0, i32 noundef %.0, i32 noundef 4, i32 noundef 0)
  %17 = icmp sgt i32 %14, 0
  br i1 %17, label %.lr.ph92.preheader, label %._crit_edge93

.lr.ph92.preheader:                               ; preds = %3
  %18 = add nuw nsw i32 %.0, 4
  br label %.lr.ph92

.lr.ph92:                                         ; preds = %.lr.ph92.preheader, %._crit_edge
  %.190 = phi i32 [ %.3.lcssa, %._crit_edge ], [ %18, %.lr.ph92.preheader ]
  %.08389 = phi i32 [ %73, %._crit_edge ], [ 0, %.lr.ph92.preheader ]
  %19 = tail call zeroext i8 @tvb_get_uint8(ptr noundef %0, i32 noundef %.190)
  %20 = zext i8 %19 to i32
  %21 = load i32, ptr @hf_fcfzs_zonenmlen, align 4
  %22 = tail call ptr @proto_tree_add_item(ptr noundef %2, i32 noundef %21, ptr noundef %0, i32 noundef %.190, i32 noundef 1, i32 noundef 0)
  %23 = add i32 %.190, 4
  %24 = load i32, ptr @hf_fcfzs_zonename, align 4
  %25 = tail call ptr @proto_tree_add_item(ptr noundef %2, i32 noundef %24, ptr noundef %0, i32 noundef %23, i32 noundef %20, i32 noundef 0)
  %26 = add i32 %23, %20
  %27 = and i32 %20, 3
  %.not86 = icmp eq i32 %27, 0
  %reass.sub94 = sub i32 %26, %27
  %28 = add i32 %reass.sub94, 4
  %.2 = select i1 %.not86, i32 %26, i32 %28
  %29 = tail call i32 @tvb_get_ntohl(ptr noundef %0, i32 noundef %.2)
  %30 = load i32, ptr @hf_fcfzs_nummbrentries, align 4
  %31 = tail call ptr @proto_tree_add_item(ptr noundef %2, i32 noundef %30, ptr noundef %0, i32 noundef %.2, i32 noundef 4, i32 noundef 0)
  %32 = add i32 %.2, 4
  %33 = icmp sgt i32 %29, 0
  br i1 %33, label %.lr.ph, label %._crit_edge

.lr.ph:                                           ; preds = %.lr.ph92, %70
  %.388 = phi i32 [ %71, %70 ], [ %32, %.lr.ph92 ]
  %.08287 = phi i32 [ %72, %70 ], [ 0, %.lr.ph92 ]
  %34 = load i32, ptr @hf_fcfzs_mbrtype, align 4
  %35 = tail call ptr @proto_tree_add_item(ptr noundef %2, i32 noundef %34, ptr noundef %0, i32 noundef %.388, i32 noundef 1, i32 noundef 0)
  %36 = tail call zeroext i8 @tvb_get_uint8(ptr noundef %0, i32 noundef %.388)
  switch i8 %36, label %68 [
    i8 1, label %37
    i8 4, label %37
    i8 2, label %41
    i8 3, label %45
    i8 -31, label %49
    i8 -30, label %56
    i8 -29, label %62
  ]

37:                                               ; preds = %.lr.ph, %.lr.ph
  %38 = load i32, ptr @hf_fcfzs_mbrid_fcwwn, align 4
  %39 = add i32 %.388, 4
  %40 = tail call ptr @proto_tree_add_item(ptr noundef %2, i32 noundef %38, ptr noundef %0, i32 noundef %39, i32 noundef 8, i32 noundef 0)
  br label %70

41:                                               ; preds = %.lr.ph
  %42 = load i32, ptr @hf_fcfzs_mbrid_uint, align 4
  %43 = add i32 %.388, 4
  %44 = tail call ptr @proto_tree_add_item(ptr noundef %2, i32 noundef %42, ptr noundef %0, i32 noundef %43, i32 noundef 3, i32 noundef 0)
  br label %70

45:                                               ; preds = %.lr.ph
  %46 = load i32, ptr @hf_fcfzs_mbrid_fc, align 4
  %47 = add i32 %.388, 4
  %48 = tail call ptr @proto_tree_add_item(ptr noundef %2, i32 noundef %46, ptr noundef %0, i32 noundef %47, i32 noundef 3, i32 noundef 0)
  br label %70

49:                                               ; preds = %.lr.ph
  %50 = load i32, ptr @hf_fcfzs_mbrid_fcwwn, align 4
  %51 = add i32 %.388, 4
  %52 = tail call ptr @proto_tree_add_item(ptr noundef %2, i32 noundef %50, ptr noundef %0, i32 noundef %51, i32 noundef 8, i32 noundef 0)
  %53 = load i32, ptr @hf_fcfzs_mbrid_lun, align 4
  %54 = add i32 %.388, 8
  %55 = tail call ptr @proto_tree_add_item(ptr noundef %2, i32 noundef %53, ptr noundef %0, i32 noundef %54, i32 noundef 8, i32 noundef 0)
  br label %70

56:                                               ; preds = %.lr.ph
  %57 = load i32, ptr @hf_fcfzs_mbrid_uint, align 4
  %58 = add i32 %.388, 4
  %59 = tail call ptr @proto_tree_add_item(ptr noundef %2, i32 noundef %57, ptr noundef %0, i32 noundef %58, i32 noundef 3, i32 noundef 0)
  %60 = load i32, ptr @hf_fcfzs_mbrid_lun, align 4
  %61 = tail call ptr @proto_tree_add_item(ptr noundef %2, i32 noundef %60, ptr noundef %0, i32 noundef %58, i32 noundef 8, i32 noundef 0)
  br label %70

62:                                               ; preds = %.lr.ph
  %63 = load i32, ptr @hf_fcfzs_mbrid_fc, align 4
  %64 = add i32 %.388, 4
  %65 = tail call ptr @proto_tree_add_item(ptr noundef %2, i32 noundef %63, ptr noundef %0, i32 noundef %64, i32 noundef 3, i32 noundef 0)
  %66 = load i32, ptr @hf_fcfzs_mbrid_lun, align 4
  %67 = tail call ptr @proto_tree_add_item(ptr noundef %2, i32 noundef %66, ptr noundef %0, i32 noundef %64, i32 noundef 8, i32 noundef 0)
  br label %70

68:                                               ; preds = %.lr.ph
  %69 = tail call ptr @expert_add_info(ptr noundef %1, ptr noundef %35, ptr noundef nonnull @ei_fcfzs_mbrid)
  br label %70

70:                                               ; preds = %68, %62, %56, %49, %45, %41, %37
  %71 = add i32 %.388, 12
  %72 = add nuw nsw i32 %.08287, 1
  %exitcond.not = icmp eq i32 %72, %29
  br i1 %exitcond.not, label %._crit_edge, label %.lr.ph, !llvm.loop !11

._crit_edge:                                      ; preds = %70, %.lr.ph92
  %.3.lcssa = phi i32 [ %32, %.lr.ph92 ], [ %71, %70 ]
  %73 = add nuw nsw i32 %.08389, 1
  %exitcond95.not = icmp eq i32 %73, %14
  br i1 %exitcond95.not, label %._crit_edge93, label %.lr.ph92, !llvm.loop !12

._crit_edge93:                                    ; preds = %._crit_edge, %3
  ret void
}